target datalayout = "e-m:e-p270:32:32-p271:32:32-p272:64:64-i64:64-i128:128-f80:128-n8:16:32:64-S128"
target triple = "x86_64-pc-linux-gnu"

@.str.646 = private unnamed_addr constant [28 x i8] c"Label Distribution Protocol\00", align 1
@.str.647 = private unnamed_addr constant [4 x i8] c"LDP\00", align 1
@.str.648 = private unnamed_addr constant [4 x i8] c"ldp\00", align 1
@proto_ldp = internal global i32 0, align 4
@ldp_handle = internal global ptr null, align 8
@.str.649 = private unnamed_addr constant [8 x i8] c"ldp.tcp\00", align 1
@ldp_tcp_handle = internal global ptr null, align 8
@.str.650 = private unnamed_addr constant [23 x i8] c"desegment_ldp_messages\00", align 1
@.str.651 = private unnamed_addr constant [55 x i8] c"Reassemble LDP messages spanning multiple TCP segments\00", align 1
@.str.652 = private unnamed_addr constant [204 x i8] c"Whether the LDP dissector should reassemble messages spanning multiple TCP segments. To use this option, you must also enable \22Allow subdissectors to reassemble TCP streams\22 in the TCP protocol settings.\00", align 1
@ldp_desegment = internal global i8 1, align 1

; Function Attrs: null_pointer_is_valid sspstrong uwtable
define hidden void @proto_register_ldp() #0 {
  %1 = alloca ptr, align 8
  %2 = alloca ptr, align 8
  call void @llvm.lifetime.start.p0(i64 8, ptr %1) #7
  call void @llvm.lifetime.start.p0(i64 8, ptr %2) #7
  %3 = call i32 @proto_register_protocol(ptr noundef @.str.646, ptr noundef @.str.647, ptr noundef @.str.648)
  store i32 %3, ptr @proto_ldp, align 4
  %4 = load i32, ptr @proto_ldp, align 4
  call void @proto_register_field_array(i32 noundef %4, ptr noundef @proto_register_ldp.hf, i32 noundef 250)
  call void @proto_register_subtree_array(ptr noundef @proto_register_ldp.ett, i32 noundef 18)
  %5 = load i32, ptr @proto_ldp, align 4
  %6 = call ptr @expert_register_protocol(i32 noundef %5)
  store ptr %6, ptr %2, align 8
  %7 = load ptr, ptr %2, align 8
  call void @expert_register_field_array(ptr noundef %7, ptr noundef @proto_register_ldp.ei, i32 noundef 12)
  %8 = load i32, ptr @proto_ldp, align 4
  %9 = call ptr @register_dissector(ptr noundef @.str.648, ptr noundef @dissect_ldp, i32 noundef %8)
  store ptr %9, ptr @ldp_handle, align 8
  %10 = load i32, ptr @proto_ldp, align 4
  %11 = call ptr @register_dissector(ptr noundef @.str.649, ptr noundef @dissect_ldp_tcp, i32 noundef %10)
  store ptr %11, ptr @ldp_tcp_handle, align 8
  %12 = load i32, ptr @proto_ldp, align 4
  %13 = call ptr @prefs_register_protocol(i32 noundef %12, ptr noundef null)
  store ptr %13, ptr %1, align 8
  %14 = load ptr, ptr %1, align 8
  call void @prefs_register_bool_preference(ptr noundef %14, ptr noundef @.str.650, ptr noundef @.str.651, ptr noundef @.str.652, ptr noundef @ldp_desegment)
  call void @llvm.lifetime.end.p0(i64 8, ptr %2) #7
  call void @llvm.lifetime.end.p0(i64 8, ptr %1) #7
  ret void
}