; Function Attrs: null_pointer_is_valid sspstrong uwtable
define hidden void @proto_register_ldp() local_unnamed_addr #0 {
  %1 = tail call i32 @proto_register_protocol(ptr noundef nonnull @.str.646, ptr noundef nonnull @.str.647, ptr noundef nonnull @.str.648)
  store i32 %1, ptr @proto_ldp, align 4
  tail call void @proto_register_field_array(i32 noundef %1, ptr noundef nonnull @proto_register_ldp.hf, i32 noundef 250)
  tail call void @proto_register_subtree_array(ptr noundef nonnull @proto_register_ldp.ett, i32 noundef 18)
  %2 = load i32, ptr @proto_ldp, align 4
  %3 = tail call ptr @expert_register_protocol(i32 noundef %2)
  tail call void @expert_register_field_array(ptr noundef %3, ptr noundef nonnull @proto_register_ldp.ei, i32 noundef 12)
  %4 = load i32, ptr @proto_ldp, align 4
  %5 = tail call ptr @register_dissector(ptr noundef nonnull @.str.648, ptr noundef nonnull @dissect_ldp, i32 noundef %4)
  store ptr %5, ptr @ldp_handle, align 8
  %6 = load i32, ptr @proto_ldp, align 4
  %7 = tail call ptr @register_dissector(ptr noundef nonnull @.str.649, ptr noundef nonnull @dissect_ldp_tcp, i32 noundef %6)
  store ptr %7, ptr @ldp_tcp_handle, align 8
  %8 = load i32, ptr @proto_ldp, align 4
  %9 = tail call ptr @prefs_register_protocol(i32 noundef %8, ptr noundef null)
  tail call void @prefs_register_bool_preference(ptr noundef %9, ptr noundef nonnull @.str.650, ptr noundef nonnull @.str.651, ptr noundef nonnull @.str.652, ptr noundef nonnull @ldp_desegment)
  ret void
}